; ModuleID = '3/1760.c'
source_filename = "3/1760.c"
target datalayout = "e-m:e-p270:32:32-p271:32:32-p272:64:64-i64:64-f80:128-n8:16:32:64-S128"
target triple = "x86_64-pc-linux-gnu"

@.str = private unnamed_addr constant [6 x i8] c"%d %d\00", align 1
@.str.1 = private unnamed_addr constant [3 x i8] c"%d\00", align 1
@.str.2 = private unnamed_addr constant [3 x i8] c"no\00", align 1
@.str.3 = private unnamed_addr constant [4 x i8] c"yes\00", align 1

; Function Attrs: noinline nounwind uwtable
define dso_local i32 @main() #0 {
  %1 = alloca i32, align 4
  %2 = alloca i32, align 4
  %3 = alloca i32, align 4
  %4 = alloca [1000 x i32], align 16
  %5 = alloca i32, align 4
  %6 = alloca i32, align 4
  %7 = alloca i32, align 4
  %8 = alloca i32, align 4
  store i32 0, i32* %1, align 4
  %9 = call i32 (i8*, ...) @__isoc99_scanf(i8* getelementptr inbounds ([6 x i8], [6 x i8]* @.str, i64 0, i64 0), i32* %2, i32* %3)
  store i32 0, i32* %5, align 4
  br label %10

10:                                               ; preds = %19, %0
  %11 = load i32, i32* %5, align 4
  %12 = load i32, i32* %2, align 4
  %13 = icmp slt i32 %11, %12
  br i1 %13, label %14, label %22

14:                                               ; preds = %10
  %15 = load i32, i32* %5, align 4
  %16 = sext i32 %15 to i64
  %17 = getelementptr inbounds [1000 x i32], [1000 x i32]* %4, i64 0, i64 %16
  %18 = call i32 (i8*, ...) @__isoc99_scanf(i8* getelementptr inbounds ([3 x i8], [3 x i8]* @.str.1, i64 0, i64 0), i32* %17)
  br label %19

19:                                               ; preds = %14
  %20 = load i32, i32* %5, align 4
  %21 = add nsw i32 %20, 1
  store i32 %21, i32* %5, align 4
  br label %10

22:                                               ; preds = %10
  store i32 1, i32* %6, align 4
  br label %23

23:                                               ; preds = %68, %22
  %24 = load i32, i32* %6, align 4
  %25 = load i32, i32* %2, align 4
  %26 = icmp slt i32 %24, %25
  br i1 %26, label %27, label %71

27:                                               ; preds = %23
  store i32 0, i32* %5, align 4
  br label %28

28:                                               ; preds = %64, %27
  %29 = load i32, i32* %5, align 4
  %30 = load i32, i32* %2, align 4
  %31 = load i32, i32* %6, align 4
  %32 = sub nsw i32 %30, %31
  %33 = icmp slt i32 %29, %32
  br i1 %33, label %34, label %67

34:                                               ; preds = %28
  %35 = load i32, i32* %5, align 4
  %36 = sext i32 %35 to i64
  %37 = getelementptr inbounds [1000 x i32], [1000 x i32]* %4, i64 0, i64 %36
  %38 = load i32, i32* %37, align 4
  %39 = load i32, i32* %5, align 4
  %40 = add nsw i32 %39, 1
  %41 = sext i32 %40 to i64
  %42 = getelementptr inbounds [1000 x i32], [1000 x i32]* %4, i64 0, i64 %41
  %43 = load i32, i32* %42, align 4
  %44 = icmp sgt i32 %38, %43
  br i1 %44, label %45, label %63

45:                                               ; preds = %34
  %46 = load i32, i32* %5, align 4
  %47 = sext i32 %46 to i64
  %48 = getelementptr inbounds [1000 x i32], [1000 x i32]* %4, i64 0, i64 %47
  %49 = load i32, i32* %48, align 4
  store i32 %49, i32* %7, align 4
  %50 = load i32, i32* %5, align 4
  %51 = add nsw i32 %50, 1
  %52 = sext i32 %51 to i64
  %53 = getelementptr inbounds [1000 x i32], [1000 x i32]* %4, i64 0, i64 %52
  %54 = load i32, i32* %53, align 4
  %55 = load i32, i32* %5, align 4
  %56 = sext i32 %55 to i64
  %57 = getelementptr inbounds [1000 x i32], [1000 x i32]* %4, i64 0, i64 %56
  store i32 %54, i32* %57, align 4
  %58 = load i32, i32* %7, align 4
  %59 = load i32, i32* %5, align 4
  %60 = add nsw i32 %59, 1
  %61 = sext i32 %60 to i64
  %62 = getelementptr inbounds [1000 x i32], [1000 x i32]* %4, i64 0, i64 %61
  store i32 %58, i32* %62, align 4
  br label %63

63:                                               ; preds = %45, %34
  br label %64

64:                                               ; preds = %63
  %65 = load i32, i32* %5, align 4
  %66 = add nsw i32 %65, 1
  store i32 %66, i32* %5, align 4
  br label %28

67:                                               ; preds = %28
  br label %68

68:                                               ; preds = %67
  %69 = load i32, i32* %6, align 4
  %70 = add nsw i32 %69, 1
  store i32 %70, i32* %6, align 4
  br label %23

71:                                               ; preds = %23
  store i32 0, i32* %8, align 4
  %72 = load i32, i32* %2, align 4
  %73 = sub nsw i32 %72, 1
  %74 = sext i32 %73 to i64
  %75 = getelementptr inbounds [1000 x i32], [1000 x i32]* %4, i64 0, i64 %74
  %76 = load i32, i32* %75, align 4
  %77 = load i32, i32* %2, align 4
  %78 = sub nsw i32 %77, 2
  %79 = sext i32 %78 to i64
  %80 = getelementptr inbounds [1000 x i32], [1000 x i32]* %4, i64 0, i64 %79
  %81 = load i32, i32* %80, align 4
  %82 = add nsw i32 %76, %81
  %83 = load i32, i32* %3, align 4
  %84 = icmp slt i32 %82, %83
  br i1 %84, label %85, label %87

85:                                               ; preds = %71
  %86 = call i32 (i8*, ...) @printf(i8* getelementptr inbounds ([3 x i8], [3 x i8]* @.str.2, i64 0, i64 0))
  br label %143

87:                                               ; preds = %71
  %88 = getelementptr inbounds [1000 x i32], [1000 x i32]* %4, i64 0, i64 0
  %89 = load i32, i32* %88, align 16
  %90 = getelementptr inbounds [1000 x i32], [1000 x i32]* %4, i64 0, i64 1
  %91 = load i32, i32* %90, align 4
  %92 = add nsw i32 %89, %91
  %93 = load i32, i32* %3, align 4
  %94 = icmp sgt i32 %92, %93
  br i1 %94, label %95, label %97

95:                                               ; preds = %87
  %96 = call i32 (i8*, ...) @printf(i8* getelementptr inbounds ([3 x i8], [3 x i8]* @.str.2, i64 0, i64 0))
  br label %142

97:                                               ; preds = %87
  store i32 0, i32* %5, align 4
  br label %98

98:                                               ; preds = %133, %97
  %99 = load i32, i32* %5, align 4
  %100 = load i32, i32* %2, align 4
  %101 = sub nsw i32 %100, 1
  %102 = icmp slt i32 %99, %101
  br i1 %102, label %103, label %136

103:                                              ; preds = %98
  %104 = load i32, i32* %5, align 4
  %105 = add nsw i32 %104, 1
  store i32 %105, i32* %6, align 4
  br label %106

106:                                              ; preds = %125, %103
  %107 = load i32, i32* %6, align 4
  %108 = load i32, i32* %2, align 4
  %109 = icmp slt i32 %107, %108
  br i1 %109, label %110, label %128

110:                                              ; preds = %106
  %111 = load i32, i32* %5, align 4
  %112 = sext i32 %111 to i64
  %113 = getelementptr inbounds [1000 x i32], [1000 x i32]* %4, i64 0, i64 %112
  %114 = load i32, i32* %113, align 4
  %115 = load i32, i32* %6, align 4
  %116 = sext i32 %115 to i64
  %117 = getelementptr inbounds [1000 x i32], [1000 x i32]* %4, i64 0, i64 %116
  %118 = load i32, i32* %117, align 4
  %119 = add nsw i32 %114, %118
  %120 = load i32, i32* %3, align 4
  %121 = icmp eq i32 %119, %120
  br i1 %121, label %122, label %124

122:                                              ; preds = %110
  %123 = call i32 (i8*, ...) @printf(i8* getelementptr inbounds ([4 x i8], [4 x i8]* @.str.3, i64 0, i64 0))
  store i32 1, i32* %8, align 4
  br label %128

124:                                              ; preds = %110
  br label %125

125:                                              ; preds = %124
  %126 = load i32, i32* %6, align 4
  %127 = add nsw i32 %126, 1
  store i32 %127, i32* %6, align 4
  br label %106

128:                                              ; preds = %122, %106
  %129 = load i32, i32* %8, align 4
  %130 = icmp eq i32 %129, 1
  br i1 %130, label %131, label %132

131:                                              ; preds = %128
  br label %136

132:                                              ; preds = %128
  br label %133

133:                                              ; preds = %132
  %134 = load i32, i32* %5, align 4
  %135 = add nsw i32 %134, 1
  store i32 %135, i32* %5, align 4
  br label %98

136:                                              ; preds = %131, %98
  %137 = load i32, i32* %8, align 4
  %138 = icmp eq i32 %137, 0
  br i1 %138, label %139, label %141

139:                                              ; preds = %136
  %140 = call i32 (i8*, ...) @printf(i8* getelementptr inbounds ([3 x i8], [3 x i8]* @.str.2, i64 0, i64 0))
  br label %141

141:                                              ; preds = %139, %136
  br label %142

142:                                              ; preds = %141, %95
  br label %143

143:                                              ; preds = %142, %85
  ret i32 0
}

declare dso_local i32 @__isoc99_scanf(i8*, ...) #1

declare dso_local i32 @printf(i8*, ...) #1


!llvm.module.flags = !{!0}
!llvm.ident = !{!1}

!0 = !{i32 1, !"wchar_size", i32 4}
!1 = !{!"clang version 10.0.0-4ubuntu1 "}
